target datalayout = "e-m:e-p270:32:32-p271:32:32-p272:64:64-i64:64-i128:128-f80:128-n8:16:32:64-S128"
target triple = "x86_64-pc-linux-gnu"

%struct.ma_vec3f = type { float, float, float }
%struct.ma_gainer_config = type { i32, i32 }
%struct.ma_gainer = type { %struct.ma_gainer_config, i32, float, ptr, ptr, ptr, i32 }
%struct.ma_atomic_vec3f = type { %struct.ma_vec3f, i32 }
%struct.ma_spatializer = type { i32, i32, ptr, i32, i32, i32, float, float, float, float, float, float, float, float, float, float, i32, %struct.ma_atomic_vec3f, %struct.ma_atomic_vec3f, %struct.ma_atomic_vec3f, float, float, %struct.ma_gainer, ptr, ptr, i32 }

; Function Attrs: nounwind uwtable
define hidden void @ma_spatializer_set_attenuation_model(ptr noundef %0, i32 noundef %1) #0 {
  %3 = alloca ptr, align 8
  %4 = alloca i32, align 4
  %5 = alloca i32, align 4
  %6 = alloca i32, align 4
  store ptr %0, ptr %3, align 8
  store i32 %1, ptr %4, align 4
  %7 = load ptr, ptr %3, align 8
  %8 = icmp eq ptr %7, null
  br i1 %8, label %9, label %10

9:                                                ; preds = %2
  br label %16

10:                                               ; preds = %2
  %11 = load ptr, ptr %3, align 8
  %12 = getelementptr inbounds nuw %struct.ma_spatializer, ptr %11, i32 0, i32 3
  %13 = load i32, ptr %4, align 4
  store i32 %13, ptr %5, align 4
  %14 = load i32, ptr %5, align 4
  %15 = atomicrmw xchg ptr %12, i32 %14 seq_cst, align 8
  store i32 %15, ptr %6, align 4
  br label %16

16:                                               ; preds = %10, %9
  ret void
}