; Function Attrs: mustprogress nofree norecurse nounwind willreturn memory(argmem: readwrite) uwtable
define hidden void @ma_spatializer_set_attenuation_model(ptr noundef captures(address_is_null) %0, i32 noundef %1) local_unnamed_addr #26 {
  %3 = icmp eq ptr %0, null
  br i1 %3, label %7, label %4

4:                                                ; preds = %2
  %5 = getelementptr inbounds nuw i8, ptr %0, i64 16
  %6 = atomicrmw xchg ptr %5, i32 %1 seq_cst, align 8
  br label %7

7:                                                ; preds = %2, %4
  ret void
}